target datalayout = "e-m:e-p270:32:32-p271:32:32-p272:64:64-i64:64-i128:128-f80:128-n8:16:32:64-S128"
target triple = "x86_64-pc-linux-gnu"

%"class.pxrInternal_v0_24__pxrReserved__::GfDualQuatd" = type { %"class.pxrInternal_v0_24__pxrReserved__::GfQuatd", %"class.pxrInternal_v0_24__pxrReserved__::GfQuatd" }
%"class.pxrInternal_v0_24__pxrReserved__::GfQuatd" = type { %"class.pxrInternal_v0_24__pxrReserved__::GfVec3d", double }
%"class.pxrInternal_v0_24__pxrReserved__::GfVec3d" = type { [3 x double] }

; Function Attrs: mustprogress nounwind uwtable
define linkonce_odr noundef nonnull align 8 dereferenceable(24) ptr @_ZN32pxrInternal_v0_24__pxrReserved__7GfVec3dmLEd(ptr noundef nonnull align 8 dereferenceable(24) %0, double noundef %1) #2 comdat align 2 {
  %3 = alloca ptr, align 8
  %4 = alloca double, align 8
  store ptr %0, ptr %3, align 8
  store double %1, ptr %4, align 8
  %5 = load ptr, ptr %3, align 8
  %6 = load double, ptr %4, align 8
  %7 = getelementptr inbounds nuw %"class.pxrInternal_v0_24__pxrReserved__::GfVec3d", ptr %5, i32 0, i32 0
  %8 = getelementptr inbounds [3 x double], ptr %7, i64 0, i64 0
  %9 = load double, ptr %8, align 8
  %10 = fmul double %9, %6
  store double %10, ptr %8, align 8
  %11 = load double, ptr %4, align 8
  %12 = getelementptr inbounds nuw %"class.pxrInternal_v0_24__pxrReserved__::GfVec3d", ptr %5, i32 0, i32 0
  %13 = getelementptr inbounds [3 x double], ptr %12, i64 0, i64 1
  %14 = load double, ptr %13, align 8
  %15 = fmul double %14, %11
  store double %15, ptr %13, align 8
  %16 = load double, ptr %4, align 8
  %17 = getelementptr inbounds nuw %"class.pxrInternal_v0_24__pxrReserved__::GfVec3d", ptr %5, i32 0, i32 0
  %18 = getelementptr inbounds [3 x double], ptr %17, i64 0, i64 2
  %19 = load double, ptr %18, align 8
  %20 = fmul double %19, %16
  store double %20, ptr %18, align 8
  ret ptr %5
}

; Function Attrs: mustprogress nounwind uwtable
define linkonce_odr void @_ZNK32pxrInternal_v0_24__pxrReserved__7GfVec3dmlEd(ptr dead_on_unwind noalias writable sret(%"class.pxrInternal_v0_24__pxrReserved__::GfVec3d") align 8 %0, ptr noundef nonnull align 8 dereferenceable(24) %1, double noundef %2) #2 comdat align 2 {
  %4 = alloca ptr, align 8
  %5 = alloca double, align 8
  %6 = alloca %"class.pxrInternal_v0_24__pxrReserved__::GfVec3d", align 8
  store ptr %1, ptr %4, align 8
  store double %2, ptr %5, align 8
  %7 = load ptr, ptr %4, align 8
  %8 = load double, ptr %5, align 8
  call void @llvm.memcpy.p0.p0.i64(ptr align 8 %6, ptr align 8 %7, i64 24, i1 false)
  %9 = call noundef nonnull align 8 dereferenceable(24) ptr @_ZN32pxrInternal_v0_24__pxrReserved__7GfVec3dmLEd(ptr noundef nonnull align 8 dereferenceable(24) %6, double noundef %8)
  call void @llvm.memcpy.p0.p0.i64(ptr align 8 %0, ptr align 8 %9, i64 24, i1 false)
  ret void
}

; Function Attrs: mustprogress uwtable
define linkonce_odr void @_ZN32pxrInternal_v0_24__pxrReserved__mlERKNS_7GfQuatdES2_(ptr dead_on_unwind noalias writable sret(%"class.pxrInternal_v0_24__pxrReserved__::GfQuatd") align 8 %0, ptr noundef nonnull align 8 dereferenceable(32) %1, ptr noundef nonnull align 8 dereferenceable(32) %2) #0 comdat {
  %4 = alloca ptr, align 8
  %5 = alloca ptr, align 8
  %6 = alloca %"class.pxrInternal_v0_24__pxrReserved__::GfQuatd", align 8
  store ptr %1, ptr %4, align 8
  store ptr %2, ptr %5, align 8
  %7 = load ptr, ptr %5, align 8
  %8 = load ptr, ptr %4, align 8
  call void @llvm.memcpy.p0.p0.i64(ptr align 8 %6, ptr align 8 %8, i64 32, i1 false)
  %9 = call noundef nonnull align 8 dereferenceable(32) ptr @_ZN32pxrInternal_v0_24__pxrReserved__7GfQuatdmLERKS0_(ptr noundef nonnull align 8 dereferenceable(32) %6, ptr noundef nonnull align 8 dereferenceable(32) %7)
  call void @llvm.memcpy.p0.p0.i64(ptr align 8 %0, ptr align 8 %9, i64 32, i1 false)
  ret void
}

; Function Attrs: mustprogress nounwind uwtable
define linkonce_odr void @_ZN32pxrInternal_v0_24__pxrReserved__7GfQuatdC2EdRKNS_7GfVec3dE(ptr noundef nonnull align 8 dereferenceable(32) %0, double noundef %1, ptr noundef nonnull align 8 dereferenceable(24) %2) unnamed_addr #2 comdat align 2 {
  %4 = alloca ptr, align 8
  %5 = alloca double, align 8
  %6 = alloca ptr, align 8
  store ptr %0, ptr %4, align 8
  store double %1, ptr %5, align 8
  store ptr %2, ptr %6, align 8
  %7 = load ptr, ptr %4, align 8
  %8 = getelementptr inbounds nuw %"class.pxrInternal_v0_24__pxrReserved__::GfQuatd", ptr %7, i32 0, i32 0
  %9 = load ptr, ptr %6, align 8
  call void @llvm.memcpy.p0.p0.i64(ptr align 8 %8, ptr align 8 %9, i64 24, i1 false)
  %10 = getelementptr inbounds nuw %"class.pxrInternal_v0_24__pxrReserved__::GfQuatd", ptr %7, i32 0, i32 1
  %11 = load double, ptr %5, align 8
  store double %11, ptr %10, align 8
  ret void
}

; Function Attrs: mustprogress uwtable
define linkonce_odr void @_ZN32pxrInternal_v0_24__pxrReserved__mlEdRKNS_7GfVec3dE(ptr dead_on_unwind noalias writable sret(%"class.pxrInternal_v0_24__pxrReserved__::GfVec3d") align 8 %0, double noundef %1, ptr noundef nonnull align 8 dereferenceable(24) %2) #0 comdat {
  %4 = alloca double, align 8
  %5 = alloca ptr, align 8
  store double %1, ptr %4, align 8
  store ptr %2, ptr %5, align 8
  %6 = load ptr, ptr %5, align 8
  %7 = load double, ptr %4, align 8
  call void @_ZNK32pxrInternal_v0_24__pxrReserved__7GfVec3dmlEd(ptr dead_on_unwind writable sret(%"class.pxrInternal_v0_24__pxrReserved__::GfVec3d") align 8 %0, ptr noundef nonnull align 8 dereferenceable(24) %6, double noundef %7)
  ret void
}

; Function Attrs: mustprogress uwtable
define void @_ZN32pxrInternal_v0_24__pxrReserved__11GfDualQuatd14SetTranslationERKNS_7GfVec3dE(ptr noundef nonnull align 8 dereferenceable(64) %0, ptr noundef nonnull align 8 dereferenceable(24) %1) #0 align 2 {
  %3 = alloca ptr, align 8
  %4 = alloca ptr, align 8
  %5 = alloca %"class.pxrInternal_v0_24__pxrReserved__::GfQuatd", align 8
  %6 = alloca %"class.pxrInternal_v0_24__pxrReserved__::GfQuatd", align 8
  %7 = alloca %"class.pxrInternal_v0_24__pxrReserved__::GfVec3d", align 8
  store ptr %0, ptr %3, align 8
  store ptr %1, ptr %4, align 8
  %8 = load ptr, ptr %3, align 8
  %9 = load ptr, ptr %4, align 8
  call void @_ZN32pxrInternal_v0_24__pxrReserved__mlEdRKNS_7GfVec3dE(ptr dead_on_unwind writable sret(%"class.pxrInternal_v0_24__pxrReserved__::GfVec3d") align 8 %7, double noundef 5.000000e-01, ptr noundef nonnull align 8 dereferenceable(24) %9)
  call void @_ZN32pxrInternal_v0_24__pxrReserved__7GfQuatdC2EdRKNS_7GfVec3dE(ptr noundef nonnull align 8 dereferenceable(32) %6, double noundef 0.000000e+00, ptr noundef nonnull align 8 dereferenceable(24) %7)
  %10 = getelementptr inbounds nuw %"class.pxrInternal_v0_24__pxrReserved__::GfDualQuatd", ptr %8, i32 0, i32 0
  call void @_ZN32pxrInternal_v0_24__pxrReserved__mlERKNS_7GfQuatdES2_(ptr dead_on_unwind writable sret(%"class.pxrInternal_v0_24__pxrReserved__::GfQuatd") align 8 %5, ptr noundef nonnull align 8 dereferenceable(32) %6, ptr noundef nonnull align 8 dereferenceable(32) %10)
  %11 = getelementptr inbounds nuw %"class.pxrInternal_v0_24__pxrReserved__::GfDualQuatd", ptr %8, i32 0, i32 1
  call void @llvm.memcpy.p0.p0.i64(ptr align 8 %11, ptr align 8 %5, i64 32, i1 false)
  ret void
}