; Function Attrs: mustprogress uwtable
define void @_ZN32pxrInternal_v0_24__pxrReserved__11GfDualQuatd14SetTranslationERKNS_7GfVec3dE(ptr noundef nonnull align 8 dereferenceable(64) %0, ptr noundef nonnull readonly align 8 captures(none) dereferenceable(24) %1) local_unnamed_addr #0 align 2 {
  %3 = alloca %"class.pxrInternal_v0_24__pxrReserved__::GfQuatd", align 8
  %4 = alloca %"class.pxrInternal_v0_24__pxrReserved__::GfQuatd", align 8
  %.sroa.0.0.copyload.i.i = load double, ptr %1, align 8, !noalias !27
  %.sroa.4.0..sroa_idx.i.i = getelementptr inbounds nuw i8, ptr %1, i64 8
  %.sroa.4.0.copyload.i.i = load double, ptr %.sroa.4.0..sroa_idx.i.i, align 8, !noalias !27
  %.sroa.6.0..sroa_idx.i.i = getelementptr inbounds nuw i8, ptr %1, i64 16
  %.sroa.6.0.copyload.i.i = load double, ptr %.sroa.6.0..sroa_idx.i.i, align 8, !noalias !27
  %5 = fmul double %.sroa.0.0.copyload.i.i, 5.000000e-01
  %6 = fmul double %.sroa.4.0.copyload.i.i, 5.000000e-01
  %7 = fmul double %.sroa.6.0.copyload.i.i, 5.000000e-01
  call void @llvm.lifetime.start.p0(i64 32, ptr nonnull %3)
  store double %5, ptr %3, align 8, !noalias !32
  %.sroa.23.0..sroa_idx = getelementptr inbounds nuw i8, ptr %3, i64 8
  store double %6, ptr %.sroa.23.0..sroa_idx, align 8, !noalias !32
  %.sroa.34.0..sroa_idx = getelementptr inbounds nuw i8, ptr %3, i64 16
  store double %7, ptr %.sroa.34.0..sroa_idx, align 8, !noalias !32
  %.sroa.4.0..sroa_idx = getelementptr inbounds nuw i8, ptr %3, i64 24
  store double 0.000000e+00, ptr %.sroa.4.0..sroa_idx, align 8, !noalias !32
  %8 = call noundef nonnull align 8 dereferenceable(32) ptr @_ZN32pxrInternal_v0_24__pxrReserved__7GfQuatdmLERKS0_(ptr noundef nonnull align 8 dereferenceable(32) %3, ptr noundef nonnull align 8 dereferenceable(32) %0), !noalias !32
  call void @llvm.memcpy.p0.p0.i64(ptr noundef nonnull align 8 dereferenceable(32) %4, ptr noundef nonnull align 8 dereferenceable(32) %8, i64 32, i1 false)
  call void @llvm.lifetime.end.p0(i64 32, ptr nonnull %3)
  %9 = getelementptr inbounds nuw i8, ptr %0, i64 32
  call void @llvm.memcpy.p0.p0.i64(ptr noundef nonnull align 8 dereferenceable(32) %9, ptr noundef nonnull align 8 dereferenceable(32) %4, i64 32, i1 false)
  ret void
}